target datalayout = "e-m:e-p270:32:32-p271:32:32-p272:64:64-i64:64-i128:128-f80:128-n8:16:32:64-S128"
target triple = "x86_64-pc-linux-gnu"

@.str = private unnamed_addr constant [26 x i8] c"Parameter '%s' is invalid\00", align 1
@.str.1 = private unnamed_addr constant [5 x i8] c"args\00", align 1
@.str.2 = private unnamed_addr constant [24 x i8] c"SDL.process.create.args\00", align 1
@.str.3 = private unnamed_addr constant [32 x i8] c"SDL.process.create.stdin_option\00", align 1
@.str.4 = private unnamed_addr constant [33 x i8] c"SDL.process.create.stdout_option\00", align 1

; Function Attrs: nounwind uwtable
define hidden ptr @SDL_CreateProcess_REAL(ptr noundef %0, i1 noundef zeroext %1) #0 {
  %3 = alloca ptr, align 8
  %4 = alloca ptr, align 8
  %5 = alloca i8, align 1
  %6 = alloca ptr, align 8
  %7 = alloca i32, align 4
  store ptr %0, ptr %4, align 8
  %8 = zext i1 %1 to i8
  store i8 %8, ptr %5, align 1
  %9 = load ptr, ptr %4, align 8
  %10 = icmp ne ptr %9, null
  br i1 %10, label %11, label %23

11:                                               ; preds = %2
  %12 = load ptr, ptr %4, align 8
  %13 = getelementptr inbounds ptr, ptr %12, i64 0
  %14 = load ptr, ptr %13, align 8
  %15 = icmp ne ptr %14, null
  br i1 %15, label %16, label %23

16:                                               ; preds = %11
  %17 = load ptr, ptr %4, align 8
  %18 = getelementptr inbounds ptr, ptr %17, i64 0
  %19 = load ptr, ptr %18, align 8
  %20 = getelementptr inbounds i8, ptr %19, i64 0
  %21 = load i8, ptr %20, align 1
  %22 = icmp ne i8 %21, 0
  br i1 %22, label %25, label %23

23:                                               ; preds = %16, %11, %2
  %24 = call zeroext i1 (ptr, ...) @SDL_SetError_REAL(ptr noundef @.str, ptr noundef @.str.1)
  store ptr null, ptr %3, align 8
  br label %42

25:                                               ; preds = %16
  call void @llvm.lifetime.start.p0(i64 8, ptr %6) #4
  call void @llvm.lifetime.start.p0(i64 4, ptr %7) #4
  %26 = call i32 @SDL_CreateProperties_REAL()
  store i32 %26, ptr %7, align 4
  %27 = load i32, ptr %7, align 4
  %28 = load ptr, ptr %4, align 8
  %29 = call zeroext i1 @SDL_SetPointerProperty_REAL(i32 noundef %27, ptr noundef @.str.2, ptr noundef %28)
  %30 = load i8, ptr %5, align 1, !range !3, !noundef !4
  %31 = trunc i8 %30 to i1
  br i1 %31, label %32, label %37

32:                                               ; preds = %25
  %33 = load i32, ptr %7, align 4
  %34 = call zeroext i1 @SDL_SetNumberProperty_REAL(i32 noundef %33, ptr noundef @.str.3, i64 noundef 2)
  %35 = load i32, ptr %7, align 4
  %36 = call zeroext i1 @SDL_SetNumberProperty_REAL(i32 noundef %35, ptr noundef @.str.4, i64 noundef 2)
  br label %37

37:                                               ; preds = %32, %25
  %38 = load i32, ptr %7, align 4
  %39 = call ptr @SDL_CreateProcessWithProperties_REAL(i32 noundef %38)
  store ptr %39, ptr %6, align 8
  %40 = load i32, ptr %7, align 4
  call void @SDL_DestroyProperties_REAL(i32 noundef %40)
  %41 = load ptr, ptr %6, align 8
  store ptr %41, ptr %3, align 8
  call void @llvm.lifetime.end.p0(i64 4, ptr %7) #4
  call void @llvm.lifetime.end.p0(i64 8, ptr %6) #4
  br label %42

42:                                               ; preds = %37, %23
  %43 = load ptr, ptr %3, align 8
  ret ptr %43
}