; Function Attrs: nounwind uwtable
define hidden noundef ptr @SDL_CreateProcess_REAL(ptr noundef %0, i1 noundef zeroext %1) local_unnamed_addr #0 {
  %.not = icmp eq ptr %0, null
  br i1 %.not, label %7, label %3

3:                                                ; preds = %2
  %4 = load ptr, ptr %0, align 8
  %.not13 = icmp eq ptr %4, null
  br i1 %.not13, label %7, label %5

5:                                                ; preds = %3
  %6 = load i8, ptr %4, align 1
  %.not14 = icmp eq i8 %6, 0
  br i1 %.not14, label %7, label %9

7:                                                ; preds = %5, %3, %2
  %8 = tail call zeroext i1 (ptr, ...) @SDL_SetError_REAL(ptr noundef nonnull @.str, ptr noundef nonnull @.str.1) #3
  br label %17

9:                                                ; preds = %5
  %10 = tail call i32 @SDL_CreateProperties_REAL() #3
  %11 = tail call zeroext i1 @SDL_SetPointerProperty_REAL(i32 noundef %10, ptr noundef nonnull @.str.2, ptr noundef nonnull %0) #3
  br i1 %1, label %12, label %15

12:                                               ; preds = %9
  %13 = tail call zeroext i1 @SDL_SetNumberProperty_REAL(i32 noundef %10, ptr noundef nonnull @.str.3, i64 noundef 2) #3
  %14 = tail call zeroext i1 @SDL_SetNumberProperty_REAL(i32 noundef %10, ptr noundef nonnull @.str.4, i64 noundef 2) #3
  br label %15

15:                                               ; preds = %12, %9
  %16 = tail call ptr @SDL_CreateProcessWithProperties_REAL(i32 noundef %10)
  tail call void @SDL_DestroyProperties_REAL(i32 noundef %10) #3
  br label %17

17:                                               ; preds = %15, %7
  %.0 = phi ptr [ %16, %15 ], [ null, %7 ]
  ret ptr %.0
}